target datalayout = "e-m:e-p270:32:32-p271:32:32-p272:64:64-i64:64-i128:128-f80:128-n8:16:32:64-S128"
target triple = "x86_64-pc-linux-gnu"

%struct._asn1_ctx_t = type { i32, i32, i8, ptr, ptr, ptr, ptr, ptr, %struct.anon.0, %struct.anon.3, %struct.anon.4, ptr }
%struct.anon.0 = type { i32, i8, i8, i8, ptr, ptr, i32, i32, ptr, ptr, ptr, %union.anon }
%union.anon = type { %struct.anon.1 }
%struct.anon.1 = type { ptr }
%struct.anon.3 = type { ptr, ptr, ptr }
%struct.anon.4 = type { i32, i8, ptr, i32, i32, ptr, ptr, ptr, %union.anon.5 }
%union.anon.5 = type { %struct.anon.6 }
%struct.anon.6 = type { ptr }

@hf_kpasswd_ChangePasswdData = internal global i32 0, align 4

; Function Attrs: null_pointer_is_valid sspstrong uwtable
define internal i32 @dissect_kpasswd_user_data_request(ptr noundef %0, ptr noundef %1, ptr noundef %2) #0 {
  %4 = alloca ptr, align 8
  %5 = alloca ptr, align 8
  %6 = alloca ptr, align 8
  %7 = alloca i32, align 4
  %8 = alloca %struct._asn1_ctx_t, align 8
  store ptr %0, ptr %4, align 8
  store ptr %1, ptr %5, align 8
  store ptr %2, ptr %6, align 8
  call void @llvm.lifetime.start.p0(i64 4, ptr %7) #3
  store i32 0, ptr %7, align 4
  call void @llvm.lifetime.start.p0(i64 208, ptr %8) #3
  %9 = load ptr, ptr %4, align 8
  call void @asn1_ctx_init(ptr noundef %8, i32 noundef 0, i1 noundef zeroext true, ptr noundef %9)
  %10 = load ptr, ptr %5, align 8
  %11 = load i32, ptr %7, align 4
  %12 = load ptr, ptr %6, align 8
  %13 = load i32, ptr @hf_kpasswd_ChangePasswdData, align 4
  %14 = call i32 @dissect_kerberos_ChangePasswdData(i1 noundef zeroext false, ptr noundef %10, i32 noundef %11, ptr noundef %8, ptr noundef %12, i32 noundef %13)
  store i32 %14, ptr %7, align 4
  %15 = load i32, ptr %7, align 4
  call void @llvm.lifetime.end.p0(i64 208, ptr %8) #3
  call void @llvm.lifetime.end.p0(i64 4, ptr %7) #3
  ret i32 %15
}