; Function Attrs: null_pointer_is_valid sspstrong uwtable
define internal i32 @dissect_kpasswd_user_data_request(ptr noundef %0, ptr noundef %1, ptr noundef %2) #0 {
  %4 = alloca %struct._asn1_ctx_t, align 8
  call void @llvm.lifetime.start.p0(i64 208, ptr nonnull %4) #3
  call void @asn1_ctx_init(ptr noundef nonnull %4, i32 noundef 0, i1 noundef zeroext true, ptr noundef %0)
  %5 = load i32, ptr @hf_kpasswd_ChangePasswdData, align 4
  %6 = call i32 @dissect_kerberos_ChangePasswdData(i1 noundef zeroext false, ptr noundef %1, i32 noundef 0, ptr noundef nonnull %4, ptr noundef %2, i32 noundef %5)
  call void @llvm.lifetime.end.p0(i64 208, ptr nonnull %4) #3
  ret i32 %6
}